(lp0
S'11.137137,79.074821'
p1
aS'11.281097,79.486526'
p2
aS'10.647622,77.013694'
p3
aS'11.441963,79.64463'
p4
aS'11.307739,79.632652'
p5
aS'11.409159,79.251857'
p6
aS'11.559685,79.55738'
p7
aS'11.515532,79.338481'
p8
aS'12.043543,78.491703'
p9
aS'10.169649,77.745193'
p10
a.