(lp0
(dp1
S'name_2'
p2
S'ariyalur'
p3
sS'name_3'
p4
S'ariyalur'
p5
sS'Taluk'
p6
VAriyalur
p7
sS'keyid'
p8
Vpv_16_3
p9
sS'level'
p10
S'level3'
p11
sS'type'
p12
S'processeddata'
p13
sS'keytype'
p14
VDate
p15
sS'org_id'
p16
I1
sS'tempid'
p17
V28
p18
sS'id_2'
p19
S'616'
p20
sS'id_3'
p21
S'5787'
p22
sS'id_1'
p23
S'33'
p24
sS'name_1'
p25
S'tamilnadu'
p26
sS'date'
p27
S'2015-07-13'
p28
sVpv_16_3_by_avg
p29
F2000.0
sS'date_obj'
p30
(lp31
(dp32
S'keyid'
p33
g9
sS'keytype'
p34
g15
sS'value'
p35
cnumpy.core.multiarray
scalar
p36
(cnumpy
dtype
p37
(S'i8'
p38
I0
I1
tp39
Rp40
(I3
S'<'
p41
NNNI-1
I-1
I0
tp42
bS'\xd0\x07\x00\x00\x00\x00\x00\x00'
p43
tp44
Rp45
sS'date'
p46
g28
sS'id'
p47
Vpv_16_3_1_1-28-13-07-2015
p48
sS'productid'
p49
V3
p50
sa(dp51
g33
Vpv_16_3_by_avg
p52
sg34
g15
sg35
F2000.0
sg46
g28
sg47
Vpv_16_3_1_1-28-13-07-2015_by_avg
p53
sg49
g50
sasS'leveltype'
p54
S'taluk'
p55
sVpv_16_3_1_1-28-13-07-2015
p56
g45
sg9
g45
sVpv_16_3_1_1-28-13-07-2015_by_avg
p57
F2000.0
sa(dp58
S'name_2'
p59
S'cuddalore'
p60
sS'name_3'
p61
S'chidambaram'
p62
sS'Taluk'
p63
VChidambaram
p64
sS'keyid'
p65
Vpv_16_3
p66
sS'level'
p67
S'level3'
p68
sVpv_16_3_1_1-28-13-07-2015
p69
g36
(g40
S'\xdc\x05\x00\x00\x00\x00\x00\x00'
p70
tp71
Rp72
sS'keytype'
p73
VDate
p74
sS'org_id'
p75
I1
sS'tempid'
p76
V28
p77
sS'id_2'
p78
S'617'
p79
sS'id_3'
p80
S'5791'
p81
sS'id_1'
p82
S'33'
p83
sS'name_1'
p84
S'tamilnadu'
p85
sS'date'
p86
S'2015-07-13'
p87
sVpv_16_3_by_avg
p88
F1500.0
sS'date_obj'
p89
(lp90
(dp91
S'keyid'
p92
g66
sS'keytype'
p93
g74
sS'value'
p94
g72
sS'date'
p95
g87
sS'id'
p96
Vpv_16_3_1_1-28-13-07-2015
p97
sS'productid'
p98
V3
p99
sa(dp100
g92
Vpv_16_3_by_avg
p101
sg93
g74
sg94
F1500.0
sg95
g87
sg96
Vpv_16_3_1_1-28-13-07-2015_by_avg
p102
sg98
g99
sasS'leveltype'
p103
S'taluk'
p104
sS'type'
p105
S'processeddata'
p106
sg66
g72
sVpv_16_3_1_1-28-13-07-2015_by_avg
p107
F1500.0
sa(dp108
S'name_2'
p109
S'dharmapuri'
p110
sS'name_3'
p111
S'harur'
p112
sS'Taluk'
p113
VHarur
p114
sS'keyid'
p115
Vpv_16_3
p116
sS'level'
p117
S'level3'
p118
sS'type'
p119
S'processeddata'
p120
sS'keytype'
p121
VDate
p122
sS'org_id'
p123
I1
sS'tempid'
p124
V28
p125
sS'id_2'
p126
S'630'
p127
sS'id_3'
p128
S'5886'
p129
sS'id_1'
p130
S'33'
p131
sS'name_1'
p132
S'tamilnadu'
p133
sS'date'
p134
S'2015-07-13'
p135
sVpv_16_3_by_avg
p136
F2000.0
sS'date_obj'
p137
(lp138
(dp139
S'keyid'
p140
g116
sS'keytype'
p141
g122
sS'value'
p142
g36
(g40
S'\xd0\x07\x00\x00\x00\x00\x00\x00'
p143
tp144
Rp145
sS'date'
p146
g135
sS'id'
p147
Vpv_16_3_1_1-28-13-07-2015
p148
sS'productid'
p149
V3
p150
sa(dp151
g140
Vpv_16_3_by_avg
p152
sg141
g122
sg142
F2000.0
sg146
g135
sg147
Vpv_16_3_1_1-28-13-07-2015_by_avg
p153
sg149
g150
sasS'leveltype'
p154
S'taluk'
p155
sVpv_16_3_1_1-28-13-07-2015
p156
g145
sg116
g145
sVpv_16_3_1_1-28-13-07-2015_by_avg
p157
F2000.0
sa(dp158
S'name_2'
p159
S'cuddalore'
p160
sS'name_3'
p161
S'kattumannarkoil'
p162
sS'Taluk'
p163
VKattumannarkoil
p164
sS'keyid'
p165
Vpv_16_3
p166
sS'level'
p167
S'level3'
p168
sVpv_16_3_1_1-28-13-07-2015
p169
g36
(g40
S'\x80%\x00\x00\x00\x00\x00\x00'
p170
tp171
Rp172
sS'keytype'
p173
VDate
p174
sS'org_id'
p175
I1
sS'tempid'
p176
V28
p177
sS'id_2'
p178
S'617'
p179
sS'id_3'
p180
S'5792'
p181
sS'id_1'
p182
S'33'
p183
sS'name_1'
p184
S'tamilnadu'
p185
sS'date'
p186
S'2015-07-13'
p187
sVpv_16_3_by_avg
p188
F9600.0
sS'date_obj'
p189
(lp190
(dp191
S'keyid'
p192
g166
sS'keytype'
p193
g174
sS'value'
p194
g172
sS'date'
p195
g187
sS'id'
p196
Vpv_16_3_1_1-28-13-07-2015
p197
sS'productid'
p198
V3
p199
sa(dp200
g192
Vpv_16_3_by_avg
p201
sg193
g174
sg194
F9600.0
sg195
g187
sg196
Vpv_16_3_1_1-28-13-07-2015_by_avg
p202
sg198
g199
sasS'leveltype'
p203
S'taluk'
p204
sS'type'
p205
S'processeddata'
p206
sg166
g172
sVpv_16_3_1_1-28-13-07-2015_by_avg
p207
F9600.0
sa(dp208
S'name_2'
p209
S'cuddalore'
p210
sS'name_3'
p211
S'kurinjipadi'
p212
sS'Taluk'
p213
VKurinjipadi
p214
sS'keyid'
p215
Vpv_16_3
p216
sS'level'
p217
S'level3'
p218
sS'type'
p219
S'processeddata'
p220
sS'keytype'
p221
VDate
p222
sS'org_id'
p223
I1
sS'tempid'
p224
V28
p225
sS'id_2'
p226
S'617'
p227
sS'id_3'
p228
S'5790'
p229
sS'id_1'
p230
S'33'
p231
sS'name_1'
p232
S'tamilnadu'
p233
sS'date'
p234
S'2015-07-13'
p235
sVpv_16_3_by_avg
p236
F7000.0
sS'date_obj'
p237
(lp238
(dp239
S'keyid'
p240
g216
sS'keytype'
p241
g222
sS'value'
p242
g36
(g40
S'X\x1b\x00\x00\x00\x00\x00\x00'
p243
tp244
Rp245
sS'date'
p246
g235
sS'id'
p247
Vpv_16_3_1_1-28-13-07-2015
p248
sS'productid'
p249
V3
p250
sa(dp251
g240
Vpv_16_3_by_avg
p252
sg241
g222
sg242
F7000.0
sg246
g235
sg247
Vpv_16_3_1_1-28-13-07-2015_by_avg
p253
sg249
g250
sasS'leveltype'
p254
S'taluk'
p255
sVpv_16_3_1_1-28-13-07-2015
p256
g245
sg216
g245
sVpv_16_3_1_1-28-13-07-2015_by_avg
p257
F7000.0
sa(dp258
S'name_2'
p259
S'dindigul'
p260
sS'name_3'
p261
S'nilakkottai'
p262
sS'Taluk'
p263
VNilakkottai
p264
sS'keyid'
p265
Vpv_16_3
p266
sS'level'
p267
S'level3'
p268
sVpv_16_3_1_1-28-13-07-2015
p269
g36
(g40
S'\xb8\x0b\x00\x00\x00\x00\x00\x00'
p270
tp271
Rp272
sS'keytype'
p273
VDate
p274
sS'org_id'
p275
I1
sS'tempid'
p276
V28
p277
sS'id_2'
p278
S'612'
p279
sS'id_3'
p280
S'5767'
p281
sS'id_1'
p282
S'33'
p283
sS'name_1'
p284
S'tamilnadu'
p285
sS'date'
p286
S'2015-07-13'
p287
sVpv_16_3_by_avg
p288
F3000.0
sS'date_obj'
p289
(lp290
(dp291
S'keyid'
p292
g266
sS'keytype'
p293
g274
sS'value'
p294
g272
sS'date'
p295
g287
sS'id'
p296
Vpv_16_3_1_1-28-13-07-2015
p297
sS'productid'
p298
V3
p299
sa(dp300
g292
Vpv_16_3_by_avg
p301
sg293
g274
sg294
F3000.0
sg295
g287
sg296
Vpv_16_3_1_1-28-13-07-2015_by_avg
p302
sg298
g299
sasS'leveltype'
p303
S'taluk'
p304
sS'type'
p305
S'processeddata'
p306
sg266
g272
sVpv_16_3_1_1-28-13-07-2015_by_avg
p307
F3000.0
sa(dp308
S'name_2'
p309
S'coimbatore'
p310
sS'name_3'
p311
S'pollachi'
p312
sS'Taluk'
p313
VPollachi
p314
sS'keyid'
p315
Vpv_16_3
p316
sS'level'
p317
S'level3'
p318
sS'type'
p319
S'processeddata'
p320
sS'keytype'
p321
VDate
p322
sS'org_id'
p323
I1
sS'tempid'
p324
V28
p325
sS'id_2'
p326
S'632'
p327
sS'id_3'
p328
S'5899'
p329
sS'id_1'
p330
S'33'
p331
sS'name_1'
p332
S'tamilnadu'
p333
sS'date'
p334
S'2015-07-13'
p335
sVpv_16_3_by_avg
p336
F3400.0
sS'date_obj'
p337
(lp338
(dp339
S'keyid'
p340
g316
sS'keytype'
p341
g322
sS'value'
p342
g36
(g40
S'H\r\x00\x00\x00\x00\x00\x00'
p343
tp344
Rp345
sS'date'
p346
g335
sS'id'
p347
Vpv_16_3_1_1-28-13-07-2015
p348
sS'productid'
p349
V3
p350
sa(dp351
g340
Vpv_16_3_by_avg
p352
sg341
g322
sg342
F3400.0
sg346
g335
sg347
Vpv_16_3_1_1-28-13-07-2015_by_avg
p353
sg349
g350
sasS'leveltype'
p354
S'taluk'
p355
sVpv_16_3_1_1-28-13-07-2015
p356
g345
sg316
g345
sVpv_16_3_1_1-28-13-07-2015_by_avg
p357
F3400.0
sa(dp358
S'name_2'
p359
S'cuddalore'
p360
sS'name_3'
p361
S'tittakudi'
p362
sS'Taluk'
p363
VTittakudi
p364
sS'keyid'
p365
Vpv_16_3
p366
sS'level'
p367
S'level3'
p368
sVpv_16_3_1_1-28-13-07-2015
p369
g36
(g40
S'\xb8\x0b\x00\x00\x00\x00\x00\x00'
p370
tp371
Rp372
sS'keytype'
p373
VDate
p374
sS'org_id'
p375
I1
sS'tempid'
p376
V28
p377
sS'id_2'
p378
S'617'
p379
sS'id_3'
p380
S'5794'
p381
sS'id_1'
p382
S'33'
p383
sS'name_1'
p384
S'tamilnadu'
p385
sS'date'
p386
S'2015-07-13'
p387
sVpv_16_3_by_avg
p388
F3000.0
sS'date_obj'
p389
(lp390
(dp391
S'keyid'
p392
g366
sS'keytype'
p393
g374
sS'value'
p394
g372
sS'date'
p395
g387
sS'id'
p396
Vpv_16_3_1_1-28-13-07-2015
p397
sS'productid'
p398
V3
p399
sa(dp400
g392
Vpv_16_3_by_avg
p401
sg393
g374
sg394
F3000.0
sg395
g387
sg396
Vpv_16_3_1_1-28-13-07-2015_by_avg
p402
sg398
g399
sasS'leveltype'
p403
S'taluk'
p404
sS'type'
p405
S'processeddata'
p406
sg366
g372
sVpv_16_3_1_1-28-13-07-2015_by_avg
p407
F3000.0
sa(dp408
S'name_2'
p409
S'ariyalur'
p410
sS'name_3'
p411
S'udayarpalayam'
p412
sS'Taluk'
p413
VUdayarpalayam
p414
sS'keyid'
p415
Vpv_16_3
p416
sS'id_1'
p417
S'33'
p418
sS'level'
p419
S'level3'
p420
sS'type'
p421
S'processeddata'
p422
sS'keytype'
p423
VDate
p424
sS'org_id'
p425
I1
sS'tempid'
p426
V28
p427
sS'id_2'
p428
S'616'
p429
sS'id_3'
p430
S'5786'
p431
sS'name_1'
p432
S'tamilnadu'
p433
sS'date'
p434
S'2015-07-13'
p435
sVpv_16_3_by_avg
p436
F2400.0
sS'date_obj'
p437
(lp438
(dp439
S'keyid'
p440
g416
sS'keytype'
p441
g424
sS'value'
p442
g36
(g40
S'`\t\x00\x00\x00\x00\x00\x00'
p443
tp444
Rp445
sS'date'
p446
g435
sS'id'
p447
Vpv_16_3_1_1-28-13-07-2015
p448
sS'productid'
p449
V3
p450
sa(dp451
g440
Vpv_16_3_by_avg
p452
sg441
g424
sg442
F2400.0
sg446
g435
sg447
Vpv_16_3_1_1-28-13-07-2015_by_avg
p453
sg449
g450
sasS'leveltype'
p454
S'taluk'
p455
sVpv_16_3_1_1-28-13-07-2015
p456
g445
sg416
g445
sVpv_16_3_1_1-28-13-07-2015_by_avg
p457
F2400.0
sa(dp458
S'name_2'
p459
S'cuddalore'
p460
sS'name_3'
p461
S'virudhachalam'
p462
sS'Taluk'
p463
VVirudhachalam
p464
sS'keyid'
p465
Vpv_16_3
p466
sS'level'
p467
S'level3'
p468
sVpv_16_3_1_1-28-13-07-2015
p469
g36
(g40
S'\xe8\x03\x00\x00\x00\x00\x00\x00'
p470
tp471
Rp472
sS'keytype'
p473
VDate
p474
sS'org_id'
p475
I1
sS'tempid'
p476
V28
p477
sS'id_2'
p478
S'617'
p479
sS'id_3'
p480
S'5793'
p481
sS'name_1'
p482
S'tamilnadu'
p483
sS'date_obj'
p484
(lp485
(dp486
S'keyid'
p487
g466
sS'keytype'
p488
g474
sS'value'
p489
g472
sS'date'
p490
S'2015-07-13'
p491
sS'id'
p492
Vpv_16_3_1_1-28-13-07-2015
p493
sS'productid'
p494
V3
p495
sa(dp496
g487
Vpv_16_3_by_avg
p497
sg488
g474
sg489
F1000.0
sg490
g491
sg492
Vpv_16_3_1_1-28-13-07-2015_by_avg
p498
sg494
g495
sasS'date'
p499
g491
sVpv_16_3_by_avg
p500
F1000.0
sS'id_1'
p501
S'33'
p502
sS'leveltype'
p503
S'taluk'
p504
sS'type'
p505
S'processeddata'
p506
sg466
g472
sVpv_16_3_1_1-28-13-07-2015_by_avg
p507
F1000.0
sa.