(lp0
Vpv_16_3_1_1-28-13-07-2015_by_avg
p1
aVpv_16_3_1_1-28-13-07-2015
p2
aVpv_16_3_1_1-28-13-07-2015_by_avg
p3
aVpv_16_3_1_1-28-13-07-2015
p4
aVpv_16_3_1_1-28-13-07-2015_by_avg
p5
aVpv_16_3_1_1-28-13-07-2015
p6
aVpv_16_3_1_1-28-13-07-2015_by_avg
p7
aVpv_16_3_1_1-28-13-07-2015
p8
aVpv_16_3_1_1-28-13-07-2015_by_avg
p9
aVpv_16_3_1_1-28-13-07-2015
p10
aVpv_16_3_1_1-28-13-07-2015_by_avg
p11
aVpv_16_3_1_1-28-13-07-2015
p12
aVpv_16_3_1_1-28-13-07-2015_by_avg
p13
aVpv_16_3_1_1-28-13-07-2015
p14
aVpv_16_3_1_1-28-13-07-2015_by_avg
p15
aVpv_16_3_1_1-28-13-07-2015
p16
aVpv_16_3_1_1-28-13-07-2015_by_avg
p17
aVpv_16_3_1_1-28-13-07-2015
p18
aVpv_16_3_1_1-28-13-07-2015_by_avg
p19
aVpv_16_3_1_1-28-13-07-2015
p20
aVpv_16_3_1_1-28-13-07-2015_by_avg
p21
aVpv_16_3_1_1-28-13-07-2015
p22
aVpv_16_3_1_1-28-13-07-2015_by_avg
p23
aVpv_16_3_1_1-28-13-07-2015
p24
aVpv_16_3_1_1-28-13-07-2015_by_avg
p25
aVpv_16_3_1_1-28-13-07-2015
p26
aVpv_16_3_1_1-28-13-07-2015_by_avg
p27
aVpv_16_3_1_1-28-13-07-2015
p28
aVpv_16_3_1_1-28-13-07-2015_by_avg
p29
aVpv_16_3_1_1-28-13-07-2015
p30
aVpv_16_3_1_1-28-13-07-2015_by_avg
p31
aVpv_16_3_1_1-28-13-07-2015
p32
a.