(lp0
(dp1
S'name_2'
p2
S'ariyalur'
p3
sS'name_3'
p4
S'ariyalur'
p5
sS'Taluk'
p6
VAriyalur
p7
sS'name_1'
p8
S'tamilnadu'
p9
sS'type'
p10
S'rankdata'
p11
sS'tempid'
p12
V28
p13
sS'id_2'
p14
S'616'
p15
sS'id_3'
p16
S'5787'
p17
sS'id_1'
p18
S'33'
p19
sS'leveltype'
p20
S'taluk'
p21
sVpv_16_3_1_1-28-13-07-2015
p22
I20
sVpv_16_3_1_1-28-13-07-2015_by_avg
p23
I20
sa(dp24
g2
S'cuddalore'
p25
sg4
S'chidambaram'
p26
sg6
VChidambaram
p27
sg8
S'tamilnadu'
p28
sg10
g11
sg12
g13
sg14
S'617'
p29
sg16
S'5791'
p30
sg18
S'33'
p31
sg20
g21
sg22
I10
sg23
I10
sa(dp32
g2
S'dharmapuri'
p33
sg4
S'harur'
p34
sg6
VHarur
p35
sg8
S'tamilnadu'
p36
sg10
g11
sg12
g13
sg14
S'630'
p37
sg16
S'5886'
p38
sg18
S'33'
p39
sg20
g21
sg22
I20
sg23
I20
sa(dp40
g2
S'cuddalore'
p41
sg4
S'kattumannarkoil'
p42
sg6
VKattumannarkoil
p43
sg8
S'tamilnadu'
p44
sg10
g11
sg12
g13
sg14
S'617'
p45
sg16
S'5792'
p46
sg18
S'33'
p47
sg20
g21
sg22
I90
sg23
I90
sa(dp48
g2
S'cuddalore'
p49
sg4
S'kurinjipadi'
p50
sg6
VKurinjipadi
p51
sg8
S'tamilnadu'
p52
sg10
g11
sg12
g13
sg14
S'617'
p53
sg16
S'5790'
p54
sg18
S'33'
p55
sg20
g21
sg22
I80
sg23
I80
sa(dp56
g2
S'dindigul'
p57
sg4
S'nilakkottai'
p58
sg6
VNilakkottai
p59
sg8
S'tamilnadu'
p60
sg10
g11
sg12
g13
sg14
S'612'
p61
sg16
S'5767'
p62
sg18
S'33'
p63
sg20
g21
sg22
I50
sg23
I50
sa(dp64
g2
S'coimbatore'
p65
sg4
S'pollachi'
p66
sg6
VPollachi
p67
sg8
S'tamilnadu'
p68
sg10
g11
sg12
g13
sg14
S'632'
p69
sg16
S'5899'
p70
sg18
S'33'
p71
sg20
g21
sg22
I70
sg23
I70
sa(dp72
g2
S'cuddalore'
p73
sg4
S'tittakudi'
p74
sg6
VTittakudi
p75
sg8
S'tamilnadu'
p76
sg10
g11
sg12
g13
sg14
S'617'
p77
sg16
S'5794'
p78
sg18
S'33'
p79
sg20
g21
sg22
I50
sg23
I50
sa(dp80
g2
S'ariyalur'
p81
sg4
S'udayarpalayam'
p82
sg6
VUdayarpalayam
p83
sg8
S'tamilnadu'
p84
sg10
g11
sg12
g13
sg14
S'616'
p85
sg16
S'5786'
p86
sg18
S'33'
p87
sg20
g21
sg22
I40
sg23
I40
sa(dp88
g2
S'cuddalore'
p89
sg4
S'virudhachalam'
p90
sg6
VVirudhachalam
p91
sg8
S'tamilnadu'
p92
sg10
g11
sg12
g13
sg14
S'617'
p93
sg16
S'5793'
p94
sg18
S'33'
p95
sg20
g21
sg22
I0
sg23
I0
sa.